ARM GAS  C:\Users\saksh\AppData\Local\Temp\cccJjV2N.s 			page 1


   1              		.syntax unified
   2              		.cpu cortex-m3
   3              		.fpu softvfp
   4              		.eabi_attribute 20, 1
   5              		.eabi_attribute 21, 1
   6              		.eabi_attribute 23, 3
   7              		.eabi_attribute 24, 1
   8              		.eabi_attribute 25, 1
   9              		.eabi_attribute 26, 1
  10              		.eabi_attribute 30, 1
  11              		.eabi_attribute 34, 1
  12              		.eabi_attribute 18, 4
  13              		.thumb
  14              		.syntax unified
  15              		.file	"main.c"
  16              		.text
  17              	.Ltext0:
  18              		.cfi_sections	.debug_frame
  19              		.section	.text.checkInput,"ax",%progbits
  20              		.align	2
  21              		.global	checkInput
  22              		.thumb
  23              		.thumb_func
  24              		.type	checkInput, %function
  25              	checkInput:
  26              	.LFB63:
  27              		.file 1 "main.c"
   1:main.c        **** #include "project.h"
   2:main.c        **** #include "stdlib.h"
   3:main.c        **** 
   4:main.c        **** #define LED_ON 1u
   5:main.c        **** #define LED_OFF 0u
   6:main.c        **** 
   7:main.c        **** #define INITIAL_LEVEL 1
   8:main.c        **** 
   9:main.c        **** // Function to check if the player's input matches the pattern
  10:main.c        **** int checkInput(int arr[], int level) {
  28              		.loc 1 10 0
  29              		.cfi_startproc
  30              		@ args = 0, pretend = 0, frame = 0
  31              		@ frame_needed = 0, uses_anonymous_args = 0
  32              	.LVL0:
  33 0000 F8B5     		push	{r3, r4, r5, r6, r7, lr}
  34              		.cfi_def_cfa_offset 24
  35              		.cfi_offset 3, -24
  36              		.cfi_offset 4, -20
  37              		.cfi_offset 5, -16
  38              		.cfi_offset 6, -12
  39              		.cfi_offset 7, -8
  40              		.cfi_offset 14, -4
  41 0002 0746     		mov	r7, r0
  42 0004 0E46     		mov	r6, r1
  43              	.LVL1:
  11:main.c        ****     int inputIndex = 0;
  44              		.loc 1 11 0
  45 0006 0024     		movs	r4, #0
  12:main.c        ****    
ARM GAS  C:\Users\saksh\AppData\Local\Temp\cccJjV2N.s 			page 2


  13:main.c        ****     while (inputIndex < level) {
  46              		.loc 1 13 0
  47 0008 3FE0     		b	.L2
  48              	.LVL2:
  49              	.L7:
  50              	.LBB2:
  14:main.c        ****         // Check whether the scanning of all enabled widgets is completed.
  15:main.c        ****         if (0u == CapSense_IsBusy()) {
  51              		.loc 1 15 0
  52 000a FFF7FEFF 		bl	CapSense_IsBusy
  53              	.LVL3:
  54 000e 18B9     		cbnz	r0, .L3
  16:main.c        ****             // Update all baselines
  17:main.c        ****             CapSense_UpdateEnabledBaselines();
  55              		.loc 1 17 0
  56 0010 FFF7FEFF 		bl	CapSense_UpdateEnabledBaselines
  57              	.LVL4:
  18:main.c        ****             // Start scanning all enabled sensors
  19:main.c        ****             CapSense_ScanEnabledWidgets();
  58              		.loc 1 19 0
  59 0014 FFF7FEFF 		bl	CapSense_ScanEnabledWidgets
  60              	.LVL5:
  61              	.L3:
  20:main.c        ****         }
  21:main.c        ****  uint8 rb;
  22:main.c        ****     uint8 lb;
  23:main.c        ****     rb = CapSense_CheckIsWidgetActive(CapSense_BUTTON0__BTN);
  62              		.loc 1 23 0
  63 0018 0020     		movs	r0, #0
  64 001a FFF7FEFF 		bl	CapSense_CheckIsWidgetActive
  65              	.LVL6:
  66 001e 0546     		mov	r5, r0
  67              	.LVL7:
  24:main.c        ****     lb = CapSense_CheckIsWidgetActive(CapSense_BUTTON1__BTN);
  68              		.loc 1 24 0
  69 0020 0120     		movs	r0, #1
  70 0022 FFF7FEFF 		bl	CapSense_CheckIsWidgetActive
  71              	.LVL8:
  25:main.c        ****             if (rb) {
  72              		.loc 1 25 0
  73 0026 BDB1     		cbz	r5, .L4
  26:main.c        ****                 // Button 0
  27:main.c        ****                 if (arr[inputIndex] != 0) {
  74              		.loc 1 27 0
  75 0028 57F82430 		ldr	r3, [r7, r4, lsl #2]
  76 002c 8BBB     		cbnz	r3, .L8
  28:main.c        ****                     return 0; // Incorrect
  29:main.c        ****                 }
  30:main.c        ****                 LED1_Write(LED_ON);
  77              		.loc 1 30 0
  78 002e 0120     		movs	r0, #1
  79              	.LVL9:
  80 0030 FFF7FEFF 		bl	LED1_Write
  81              	.LVL10:
  31:main.c        ****                 CyDelay(500);
  82              		.loc 1 31 0
  83 0034 4FF4FA70 		mov	r0, #500
ARM GAS  C:\Users\saksh\AppData\Local\Temp\cccJjV2N.s 			page 3


  84 0038 FFF7FEFF 		bl	CyDelay
  85              	.LVL11:
  32:main.c        ****                 LED1_Write(LED_OFF);
  86              		.loc 1 32 0
  87 003c 0020     		movs	r0, #0
  88 003e FFF7FEFF 		bl	LED1_Write
  89              	.LVL12:
  33:main.c        ****                 CyDelay(500);
  90              		.loc 1 33 0
  91 0042 4FF4FA70 		mov	r0, #500
  92 0046 FFF7FEFF 		bl	CyDelay
  93              	.LVL13:
  34:main.c        ****                 inputIndex++;
  94              		.loc 1 34 0
  95 004a 0134     		adds	r4, r4, #1
  96              	.LVL14:
  35:main.c        ****                 CyDelay(100); // Delay to prevent multiple inputs from a single press
  97              		.loc 1 35 0
  98 004c 6420     		movs	r0, #100
  99 004e FFF7FEFF 		bl	CyDelay
 100              	.LVL15:
  36:main.c        ****                 CapSense_InitializeAllBaselines();
 101              		.loc 1 36 0
 102 0052 FFF7FEFF 		bl	CapSense_InitializeAllBaselines
 103              	.LVL16:
 104 0056 18E0     		b	.L2
 105              	.LVL17:
 106              	.L4:
  37:main.c        ****             } else if (lb) {
 107              		.loc 1 37 0
 108 0058 B8B1     		cbz	r0, .L2
  38:main.c        ****                 // Button 1
  39:main.c        ****                 if (arr[inputIndex] != 1) {
 109              		.loc 1 39 0
 110 005a 57F82430 		ldr	r3, [r7, r4, lsl #2]
 111 005e 012B     		cmp	r3, #1
 112 0060 19D1     		bne	.L9
  40:main.c        ****                     return 0; // Incorrect
  41:main.c        ****                 }
  42:main.c        ****                 LED2_Write(LED_ON);
 113              		.loc 1 42 0
 114 0062 0120     		movs	r0, #1
 115              	.LVL18:
 116 0064 FFF7FEFF 		bl	LED2_Write
 117              	.LVL19:
  43:main.c        ****                 CyDelay(500);
 118              		.loc 1 43 0
 119 0068 4FF4FA70 		mov	r0, #500
 120 006c FFF7FEFF 		bl	CyDelay
 121              	.LVL20:
  44:main.c        ****                 LED2_Write(LED_OFF);
 122              		.loc 1 44 0
 123 0070 0020     		movs	r0, #0
 124 0072 FFF7FEFF 		bl	LED2_Write
 125              	.LVL21:
  45:main.c        ****                 CyDelay(500);
 126              		.loc 1 45 0
ARM GAS  C:\Users\saksh\AppData\Local\Temp\cccJjV2N.s 			page 4


 127 0076 4FF4FA70 		mov	r0, #500
 128 007a FFF7FEFF 		bl	CyDelay
 129              	.LVL22:
  46:main.c        ****                 inputIndex++;
 130              		.loc 1 46 0
 131 007e 0134     		adds	r4, r4, #1
 132              	.LVL23:
  47:main.c        ****                 CyDelay(100); // Delay to prevent multiple inputs from a single press
 133              		.loc 1 47 0
 134 0080 6420     		movs	r0, #100
 135 0082 FFF7FEFF 		bl	CyDelay
 136              	.LVL24:
  48:main.c        ****                 CapSense_InitializeAllBaselines();
 137              		.loc 1 48 0
 138 0086 FFF7FEFF 		bl	CapSense_InitializeAllBaselines
 139              	.LVL25:
 140              	.L2:
 141              	.LBE2:
  13:main.c        ****         // Check whether the scanning of all enabled widgets is completed.
 142              		.loc 1 13 0
 143 008a B442     		cmp	r4, r6
 144 008c BDDB     		blt	.L7
  49:main.c        ****             }
  50:main.c        ****         }
  51:main.c        ****     return 1; // Correct input
 145              		.loc 1 51 0
 146 008e 0120     		movs	r0, #1
 147 0090 F8BD     		pop	{r3, r4, r5, r6, r7, pc}
 148              	.LVL26:
 149              	.L8:
 150              	.LBB3:
  28:main.c        ****                 }
 151              		.loc 1 28 0
 152 0092 0020     		movs	r0, #0
 153              	.LVL27:
 154 0094 F8BD     		pop	{r3, r4, r5, r6, r7, pc}
 155              	.LVL28:
 156              	.L9:
  40:main.c        ****                 }
 157              		.loc 1 40 0
 158 0096 0020     		movs	r0, #0
 159              	.LVL29:
 160              	.LBE3:
  52:main.c        **** }
 161              		.loc 1 52 0
 162 0098 F8BD     		pop	{r3, r4, r5, r6, r7, pc}
 163              		.cfi_endproc
 164              	.LFE63:
 165              		.size	checkInput, .-checkInput
 166 009a 00BF     		.section	.text.main,"ax",%progbits
 167              		.align	2
 168              		.global	main
 169              		.thumb
 170              		.thumb_func
 171              		.type	main, %function
 172              	main:
 173              	.LFB64:
ARM GAS  C:\Users\saksh\AppData\Local\Temp\cccJjV2N.s 			page 5


  53:main.c        **** 
  54:main.c        **** int main(void) {
 174              		.loc 1 54 0
 175              		.cfi_startproc
 176              		@ args = 0, pretend = 0, frame = 400
 177              		@ frame_needed = 0, uses_anonymous_args = 0
 178 0000 70B5     		push	{r4, r5, r6, lr}
 179              		.cfi_def_cfa_offset 16
 180              		.cfi_offset 4, -16
 181              		.cfi_offset 5, -12
 182              		.cfi_offset 6, -8
 183              		.cfi_offset 14, -4
 184 0002 E4B0     		sub	sp, sp, #400
 185              		.cfi_def_cfa_offset 416
  55:main.c        ****     CyGlobalIntEnable; /* Enable global interrupts. */
 186              		.loc 1 55 0
 187              		.syntax unified
 188              	@ 55 "main.c" 1
 189 0004 62B6     		CPSIE   i
 190              	@ 0 "" 2
 191              	.LVL30:
  56:main.c        ****     int levelCount = INITIAL_LEVEL;
  57:main.c        ****     int score = 0;
  58:main.c        ****     int score1 = 0;
  59:main.c        ****     int score2 = 0;
  60:main.c        ****     /* Place your initialization/startup code here (e.g. MyInst_Start()) */
  61:main.c        ****     LCD_Start();
 192              		.loc 1 61 0
 193              		.thumb
 194              		.syntax unified
 195 0006 FFF7FEFF 		bl	LCD_Start
 196              	.LVL31:
  62:main.c        ****     CapSense_Start();
 197              		.loc 1 62 0
 198 000a FFF7FEFF 		bl	CapSense_Start
 199              	.LVL32:
 200              	.LBB4:
  63:main.c        ****     
  64:main.c        ****     for(int j=0;j<2;j++){
  65:main.c        ****         score=0;
 201              		.loc 1 65 0
 202 000e 0026     		movs	r6, #0
 203              	.LBE4:
  56:main.c        ****     int score = 0;
 204              		.loc 1 56 0
 205 0010 0125     		movs	r5, #1
 206              	.LVL33:
 207              	.L19:
 208              	.LBB8:
 209              	.LBB5:
  66:main.c        ****     for (;;) {   
  67:main.c        ****             LCD_Position(0,0);
 210              		.loc 1 67 0
 211 0012 0021     		movs	r1, #0
 212 0014 0846     		mov	r0, r1
 213 0016 FFF7FEFF 		bl	LCD_Position
 214              	.LVL34:
ARM GAS  C:\Users\saksh\AppData\Local\Temp\cccJjV2N.s 			page 6


  68:main.c        ****             if(j==0){
  69:main.c        ****             LCD_PrintString("Player1");
 215              		.loc 1 69 0
 216 001a 3248     		ldr	r0, .L21
 217 001c FFF7FEFF 		bl	LCD_PrintString
 218              	.LVL35:
  70:main.c        ****             }else{
  71:main.c        ****             LCD_PrintString("Player2");
  72:main.c        ****             }
  73:main.c        ****         CapSense_InitializeAllBaselines();
 219              		.loc 1 73 0
 220 0020 FFF7FEFF 		bl	CapSense_InitializeAllBaselines
 221              	.LVL36:
 222              	.LBB6:
  74:main.c        ****         int level = levelCount;
  75:main.c        ****         int arr[100]; // Fix the array size to prevent stack overflow
  76:main.c        ****         /* Generate random pattern */
  77:main.c        ****         for (int i = 0; i < level; i++) {
 223              		.loc 1 77 0
 224 0024 0024     		movs	r4, #0
 225 0026 29E0     		b	.L12
 226              	.LVL37:
 227              	.L16:
 228              	.LBB7:
  78:main.c        ****             int randomNum = rand() % 2;
 229              		.loc 1 78 0
 230 0028 FFF7FEFF 		bl	rand
 231              	.LVL38:
 232 002c 2E4B     		ldr	r3, .L21+4
 233 002e 1840     		ands	r0, r0, r3
 234 0030 03D5     		bpl	.L13
 235 0032 0138     		subs	r0, r0, #1
 236 0034 60F00100 		orn	r0, r0, #1
 237 0038 0130     		adds	r0, r0, #1
 238              	.L13:
 239              	.LVL39:
  79:main.c        ****             arr[i] = randomNum;
 240              		.loc 1 79 0
 241 003a 4DF82400 		str	r0, [sp, r4, lsl #2]
  80:main.c        ****             if (randomNum == 0) {
 242              		.loc 1 80 0
 243 003e 70B9     		cbnz	r0, .L14
  81:main.c        ****                 LED1_Write(LED_ON);
 244              		.loc 1 81 0
 245 0040 0120     		movs	r0, #1
 246              	.LVL40:
 247 0042 FFF7FEFF 		bl	LED1_Write
 248              	.LVL41:
  82:main.c        ****                 CyDelay(500);
 249              		.loc 1 82 0
 250 0046 4FF4FA70 		mov	r0, #500
 251 004a FFF7FEFF 		bl	CyDelay
 252              	.LVL42:
  83:main.c        ****                 LED1_Write(LED_OFF);
 253              		.loc 1 83 0
 254 004e 0020     		movs	r0, #0
 255 0050 FFF7FEFF 		bl	LED1_Write
ARM GAS  C:\Users\saksh\AppData\Local\Temp\cccJjV2N.s 			page 7


 256              	.LVL43:
  84:main.c        ****                 CyDelay(500);
 257              		.loc 1 84 0
 258 0054 4FF4FA70 		mov	r0, #500
 259 0058 FFF7FEFF 		bl	CyDelay
 260              	.LVL44:
 261 005c 0DE0     		b	.L15
 262              	.LVL45:
 263              	.L14:
  85:main.c        ****             } else {
  86:main.c        ****                 LED2_Write(LED_ON);
 264              		.loc 1 86 0
 265 005e 0120     		movs	r0, #1
 266              	.LVL46:
 267 0060 FFF7FEFF 		bl	LED2_Write
 268              	.LVL47:
  87:main.c        ****                 CyDelay(500);
 269              		.loc 1 87 0
 270 0064 4FF4FA70 		mov	r0, #500
 271 0068 FFF7FEFF 		bl	CyDelay
 272              	.LVL48:
  88:main.c        ****                 LED2_Write(LED_OFF);
 273              		.loc 1 88 0
 274 006c 0020     		movs	r0, #0
 275 006e FFF7FEFF 		bl	LED2_Write
 276              	.LVL49:
  89:main.c        ****                 CyDelay(500);
 277              		.loc 1 89 0
 278 0072 4FF4FA70 		mov	r0, #500
 279 0076 FFF7FEFF 		bl	CyDelay
 280              	.LVL50:
 281              	.L15:
 282              	.LBE7:
  77:main.c        ****             int randomNum = rand() % 2;
 283              		.loc 1 77 0 discriminator 2
 284 007a 0134     		adds	r4, r4, #1
 285              	.LVL51:
 286              	.L12:
  77:main.c        ****             int randomNum = rand() % 2;
 287              		.loc 1 77 0 is_stmt 0 discriminator 1
 288 007c A542     		cmp	r5, r4
 289 007e D3DC     		bgt	.L16
 290              	.LBE6:
  90:main.c        ****             }
  91:main.c        ****         }
  92:main.c        ****         /* Check player input */
  93:main.c        ****         //
  94:main.c        ****         if(checkInput(arr, level)) {
 291              		.loc 1 94 0 is_stmt 1
 292 0080 2946     		mov	r1, r5
 293 0082 6846     		mov	r0, sp
 294 0084 FFF7FEFF 		bl	checkInput
 295              	.LVL52:
 296 0088 80B1     		cbz	r0, .L17
  95:main.c        ****             score++;
 297              		.loc 1 95 0
 298 008a 0136     		adds	r6, r6, #1
ARM GAS  C:\Users\saksh\AppData\Local\Temp\cccJjV2N.s 			page 8


 299              	.LVL53:
  96:main.c        ****             LCD_Position(0, 0);
 300              		.loc 1 96 0
 301 008c 0021     		movs	r1, #0
 302 008e 0846     		mov	r0, r1
 303 0090 FFF7FEFF 		bl	LCD_Position
 304              	.LVL54:
  97:main.c        ****             LCD_PrintString("Score:");
 305              		.loc 1 97 0
 306 0094 1548     		ldr	r0, .L21+8
 307 0096 FFF7FEFF 		bl	LCD_PrintString
 308              	.LVL55:
  98:main.c        ****             LCD_PrintNumber(score);
 309              		.loc 1 98 0
 310 009a B0B2     		uxth	r0, r6
 311 009c FFF7FEFF 		bl	LCD_PrintU32Number
 312              	.LVL56:
  99:main.c        ****             CyDelay(1000);
 313              		.loc 1 99 0
 314 00a0 4FF47A70 		mov	r0, #1000
 315 00a4 FFF7FEFF 		bl	CyDelay
 316              	.LVL57:
 100:main.c        ****             levelCount++;
 317              		.loc 1 100 0
 318 00a8 0135     		adds	r5, r5, #1
 319              	.LVL58:
 320 00aa B2E7     		b	.L19
 321              	.LVL59:
 322              	.L17:
 101:main.c        ****         }else{
 102:main.c        ****             // Game over, reset level count and score
 103:main.c        ****             if(j==0){
 104:main.c        ****             score1 = score;
 105:main.c        ****             }else{
 106:main.c        ****             score2=score;
 107:main.c        ****             }
 108:main.c        ****             LCD_Position(0, 0);
 323              		.loc 1 108 0
 324 00ac 0021     		movs	r1, #0
 325 00ae 0846     		mov	r0, r1
 326 00b0 FFF7FEFF 		bl	LCD_Position
 327              	.LVL60:
 109:main.c        ****             LCD_PrintString("Game Over!");
 328              		.loc 1 109 0
 329 00b4 0E48     		ldr	r0, .L21+12
 330 00b6 FFF7FEFF 		bl	LCD_PrintString
 331              	.LVL61:
 110:main.c        ****             LCD_Position(1, 0);
 332              		.loc 1 110 0
 333 00ba 0021     		movs	r1, #0
 334 00bc 0120     		movs	r0, #1
 335 00be FFF7FEFF 		bl	LCD_Position
 336              	.LVL62:
 111:main.c        ****             LCD_PrintString("Score:");
 337              		.loc 1 111 0
 338 00c2 0A48     		ldr	r0, .L21+8
 339 00c4 FFF7FEFF 		bl	LCD_PrintString
ARM GAS  C:\Users\saksh\AppData\Local\Temp\cccJjV2N.s 			page 9


 340              	.LVL63:
 112:main.c        ****             LCD_PrintNumber(score);
 341              		.loc 1 112 0
 342 00c8 B0B2     		uxth	r0, r6
 343 00ca FFF7FEFF 		bl	LCD_PrintU32Number
 344              	.LVL64:
 113:main.c        ****             levelCount = INITIAL_LEVEL;
 114:main.c        ****             score = 0;
 115:main.c        ****             CyDelay(5000); // Delay to display "Game Over!" message for 5 seconds
 345              		.loc 1 115 0
 346 00ce 41F28830 		movw	r0, #5000
 347 00d2 FFF7FEFF 		bl	CyDelay
 348              	.LVL65:
 116:main.c        ****             LCD_ClearDisplay(); // Clear LCD after delay
 349              		.loc 1 116 0
 350 00d6 0120     		movs	r0, #1
 351 00d8 FFF7FEFF 		bl	LCD_WriteControl
 352              	.LVL66:
 114:main.c        ****             CyDelay(5000); // Delay to display "Game Over!" message for 5 seconds
 353              		.loc 1 114 0
 354 00dc 0026     		movs	r6, #0
 355              	.LVL67:
 113:main.c        ****             levelCount = INITIAL_LEVEL;
 356              		.loc 1 113 0
 357 00de 0125     		movs	r5, #1
 358              	.LVL68:
 359              	.LBE5:
 117:main.c        ****         }
 118:main.c        ****     }
 360              		.loc 1 118 0
 361 00e0 97E7     		b	.L19
 362              	.L22:
 363 00e2 00BF     		.align	2
 364              	.L21:
 365 00e4 00000000 		.word	.LC0
 366 00e8 01000080 		.word	-2147483647
 367 00ec 08000000 		.word	.LC1
 368 00f0 10000000 		.word	.LC2
 369              	.LBE8:
 370              		.cfi_endproc
 371              	.LFE64:
 372              		.size	main, .-main
 373              		.section	.rodata.str1.4,"aMS",%progbits,1
 374              		.align	2
 375              	.LC0:
 376 0000 506C6179 		.ascii	"Player1\000"
 376      65723100 
 377              	.LC1:
 378 0008 53636F72 		.ascii	"Score:\000"
 378      653A00
 379 000f 00       		.space	1
 380              	.LC2:
 381 0010 47616D65 		.ascii	"Game Over!\000"
 381      204F7665 
 381      722100
 382              		.text
 383              	.Letext0:
ARM GAS  C:\Users\saksh\AppData\Local\Temp\cccJjV2N.s 			page 10


 384              		.file 2 "c:\\program files (x86)\\cypress\\psoc creator\\4.4\\psoc creator\\import\\gnu\\arm\\5.4.
 385              		.file 3 "c:\\program files (x86)\\cypress\\psoc creator\\4.4\\psoc creator\\import\\gnu\\arm\\5.4.
 386              		.file 4 "Generated_Source\\PSoC5/cytypes.h"
 387              		.file 5 "Generated_Source\\PSoC5/CapSense.h"
 388              		.file 6 "Generated_Source\\PSoC5/CapSense_CSHL.h"
 389              		.file 7 "Generated_Source\\PSoC5/LED1.h"
 390              		.file 8 "Generated_Source\\PSoC5/CyLib.h"
 391              		.file 9 "Generated_Source\\PSoC5/LED2.h"
 392              		.file 10 "c:\\program files (x86)\\cypress\\psoc creator\\4.4\\psoc creator\\import\\gnu\\arm\\5.4
 393              		.file 11 "Generated_Source\\PSoC5/LCD.h"
 394              		.file 12 "Generated_Source\\PSoC5/core_cm3.h"